; Function Attrs: mustprogress optsize uwtable
define internal void @_ZZL30nanobind_init_test_ndarray_extRN8nanobind7module_EEN3Cls2f2Ev(ptr dead_on_unwind noalias writable sret(%"class.nanobind::ndarray") align 8 %0, ptr noundef nonnull align 4 dereferenceable(40) %1) #0 align 2 personality ptr @__gxx_personality_v0 {
  %3 = alloca [1 x i64], align 8
  %4 = alloca %"class.nanobind::object", align 8
  %5 = alloca %"class.std::initializer_list.441", align 8
  call void @llvm.lifetime.start.p0(i64 8, ptr nonnull %3) #22
  store i64 10, ptr %3, align 8, !tbaa !67
  call void @llvm.lifetime.start.p0(i64 8, ptr nonnull %4) #22
  tail call void @llvm.experimental.noalias.scope.decl(metadata !68)
  %6 = tail call noundef ptr @_ZN8nanobind6detail11nb_type_putEPKSt9type_infoPvNS_9rv_policyEPNS0_12cleanup_listEPb(ptr noundef nonnull @_ZTIZL30nanobind_init_test_ndarray_extRN8nanobind7module_EE3Cls, ptr noundef nonnull %1, i32 noundef 7, ptr noundef null, ptr noundef null) #23, !noalias !68
  %.not.i = icmp eq ptr %6, null
  br i1 %.not.i, label %7, label %_ZN8nanobind4castIPZL30nanobind_init_test_ndarray_extRNS_7module_EE3ClsEENS_6objectEOT_NS_9rv_policyE.exit

7:                                                ; preds = %2
  tail call void @_ZN8nanobind6detail16raise_cast_errorEv() #25, !noalias !68
  unreachable

_ZN8nanobind4castIPZL30nanobind_init_test_ndarray_extRNS_7module_EE3ClsEENS_6objectEOT_NS_9rv_policyE.exit: ; preds = %2
  store ptr %6, ptr %4, align 8, !alias.scope !68
  call void @llvm.memset.p0.i64(ptr noundef nonnull align 8 dereferenceable(16) %5, i8 0, i64 16, i1 false)
  invoke void @_ZN8nanobind7ndarrayIJNS_5numpyEfEEC2EPvSt16initializer_listImENS_6handleES4_IlENS_6dlpack5dtypeEiic(ptr noundef nonnull align 8 dereferenceable(56) %0, ptr noundef nonnull %1, ptr nonnull %3, i64 1, ptr nonnull %6, ptr noundef nonnull byval(%"class.std::initializer_list.441") align 8 %5, i32 73730, i32 noundef 0, i32 noundef 0, i8 noundef signext 0) #21
          to label %8 unwind label %10

8:                                                ; preds = %_ZN8nanobind4castIPZL30nanobind_init_test_ndarray_extRNS_7module_EE3ClsEENS_6objectEOT_NS_9rv_policyE.exit
  %9 = call noundef nonnull align 8 dereferenceable(8) ptr @_ZNKR8nanobind6handle7dec_refEv(ptr noundef nonnull align 8 dereferenceable(8) %4) #23
  call void @llvm.lifetime.end.p0(i64 8, ptr nonnull %4) #22
  call void @llvm.lifetime.end.p0(i64 8, ptr nonnull %3) #22
  ret void

10:                                               ; preds = %_ZN8nanobind4castIPZL30nanobind_init_test_ndarray_extRNS_7module_EE3ClsEENS_6objectEOT_NS_9rv_policyE.exit
  %11 = landingpad { ptr, i32 }
          cleanup
  %12 = call noundef nonnull align 8 dereferenceable(8) ptr @_ZNKR8nanobind6handle7dec_refEv(ptr noundef nonnull align 8 dereferenceable(8) %4) #23
  call void @llvm.lifetime.end.p0(i64 8, ptr nonnull %4) #22
  call void @llvm.lifetime.end.p0(i64 8, ptr nonnull %3) #22
  resume { ptr, i32 } %11
}